(lp0
(S'yellow'
p1
(lp2
(dp3
S's_lower'
p4
I0
sS'h_lower'
p5
I20
sS'v_upper'
p6
I255
sS'v_lower'
p7
I217
sS'h_upper'
p8
I61
sS's_upper'
p9
I123
sa(dp10
S's_lower'
p11
cnumpy.core.multiarray
scalar
p12
(cnumpy
dtype
p13
(S'i8'
p14
I0
I1
tp15
Rp16
(I3
S'<'
p17
NNNI-1
I-1
I0
tp18
bS'\x00\x00\x00\x00\x00\x00\x00\x00'
p19
tp20
Rp21
sS'h_lower'
p22
g12
(g13
(S'u1'
p23
I0
I1
tp24
Rp25
(I3
S'|'
p26
NNNI-1
I-1
I0
tp27
bS']'
p28
tp29
Rp30
sS'v_upper'
p31
g12
(g16
S'\xda\x00\x00\x00\x00\x00\x00\x00'
p32
tp33
Rp34
sS'v_lower'
p35
g12
(g16
S'\xbb\x00\x00\x00\x00\x00\x00\x00'
p36
tp37
Rp38
sS'h_upper'
p39
g12
(g25
S'Q'
p40
tp41
Rp42
sS's_upper'
p43
g12
(g16
S'\x16\x00\x00\x00\x00\x00\x00\x00'
p44
tp45
Rp46
satp47
a.