(lp0
(S'yellow'
p1
(lp2
(dp3
S's_lower'
p4
I0
sS'h_lower'
p5
I20
sS'v_upper'
p6
I255
sS'v_lower'
p7
I217
sS'h_upper'
p8
I61
sS's_upper'
p9
I123
satp10
a(S'red'
p11
(lp12
(dp13
g4
I24
sg5
I3
sg6
I255
sg7
I255
sg8
I21
sg9
I157
satp14
a(S'blue'
p15
(lp16
(dp17
g4
I111
sg5
I118
sg6
I255
sg7
I202
sg8
I127
sg9
I191
satp18
a(S'green'
p19
(lp20
(dp21
g4
I79
sg5
I62
sg6
I255
sg7
I126
sg8
I140
sg9
I172
satp22
a.